target datalayout = "e-m:e-p270:32:32-p271:32:32-p272:64:64-i64:64-i128:128-f80:128-n8:16:32:64-S128"
target triple = "x86_64-pc-linux-gnu"

%class.QString = type { %struct.QArrayDataPointer }
%struct.QArrayDataPointer = type { ptr, ptr, i64 }
%class.QAbstractItemModel = type { %class.QObject }
%class.QObject = type { ptr, %class.QScopedPointer }
%class.QScopedPointer = type { ptr }
%class.EnabledProtocolsProxyModel = type { %class.QSortFilterProxyModel, i32, i32, %class.QString }
%class.QSortFilterProxyModel = type { %class.QAbstractProxyModel }
%class.QAbstractProxyModel = type { %class.QAbstractItemModel }

; Function Attrs: mustprogress null_pointer_is_valid sspstrong uwtable
define void @_ZN26EnabledProtocolsProxyModel9setFilterERK7QStringNS_10SearchTypeEN19EnabledProtocolItem18EnableProtocolTypeE(ptr noundef align 8 dereferenceable_or_null(48) %0, ptr noundef align 8 dereferenceable(24) %1, i32 noundef %2, i32 noundef %3) #0 align 2 {
  %5 = alloca ptr, align 8
  %6 = alloca ptr, align 8
  %7 = alloca i32, align 4
  %8 = alloca i32, align 4
  store ptr %0, ptr %5, align 8
  store ptr %1, ptr %6, align 8
  store i32 %2, ptr %7, align 4
  store i32 %3, ptr %8, align 4
  %9 = load ptr, ptr %5, align 8
  %10 = load ptr, ptr %6, align 8
  %11 = getelementptr inbounds nuw %class.EnabledProtocolsProxyModel, ptr %9, i32 0, i32 3
  %12 = call noundef align 8 dereferenceable(24) ptr @_ZN7QStringaSERKS_(ptr noundef align 8 dereferenceable_or_null(24) %11, ptr noundef align 8 dereferenceable(24) %10) #20
  %13 = load i32, ptr %7, align 4
  %14 = getelementptr inbounds nuw %class.EnabledProtocolsProxyModel, ptr %9, i32 0, i32 1
  store i32 %13, ptr %14, align 8
  %15 = load i32, ptr %8, align 4
  %16 = getelementptr inbounds nuw %class.EnabledProtocolsProxyModel, ptr %9, i32 0, i32 2
  store i32 %15, ptr %16, align 4
  call void @_ZN21QSortFilterProxyModel16invalidateFilterEv(ptr noundef align 8 dereferenceable_or_null(16) %9)
  ret void
}