; Function Attrs: mustprogress null_pointer_is_valid sspstrong uwtable
define void @_ZN26EnabledProtocolsProxyModel9setFilterERK7QStringNS_10SearchTypeEN19EnabledProtocolItem18EnableProtocolTypeE(ptr noundef align 8 dereferenceable_or_null(48) %0, ptr noundef align 8 dereferenceable(24) %1, i32 noundef %2, i32 noundef %3) local_unnamed_addr #4 align 2 {
  %5 = getelementptr inbounds nuw i8, ptr %0, i64 24
  %6 = tail call noundef align 8 dereferenceable(24) ptr @_ZN7QStringaSERKS_(ptr noundef nonnull align 8 dereferenceable_or_null(24) %5, ptr noundef align 8 dereferenceable(24) %1) #28
  %7 = getelementptr inbounds nuw i8, ptr %0, i64 16
  store i32 %2, ptr %7, align 8
  %8 = getelementptr inbounds nuw i8, ptr %0, i64 20
  store i32 %3, ptr %8, align 4
  tail call void @_ZN21QSortFilterProxyModel16invalidateFilterEv(ptr noundef align 8 dereferenceable_or_null(16) %0)
  ret void
}